target datalayout = "e-m:e-p270:32:32-p271:32:32-p272:64:64-i64:64-i128:128-f80:128-n8:16:32:64-S128"
target triple = "x86_64-pc-linux-gnu"

%struct.pmix_list_t = type { %struct.pmix_object_t, %struct.pmix_list_item_t, i64 }
%struct.pmix_object_t = type { %union.pthread_mutex_t, ptr, i32, %struct.pmix_tma }
%union.pthread_mutex_t = type { %struct.__pthread_mutex_s }
%struct.__pthread_mutex_s = type { i32, i32, i32, i32, i32, i16, i16, %struct.__pthread_internal_list }
%struct.__pthread_internal_list = type { ptr, ptr }
%struct.pmix_tma = type { ptr, ptr, ptr, ptr, ptr, ptr, ptr, ptr }
%struct.pmix_list_item_t = type { %struct.pmix_object_t, ptr, ptr, i32 }
%struct.prte_attribute_t = type { %struct.pmix_list_item_t, i16, i8, %struct.pmix_value }
%struct.pmix_value = type { i16, %union.anon }
%union.anon = type { %struct.pmix_envar_t }
%struct.pmix_envar_t = type { ptr, ptr, i8 }

; Function Attrs: inlinehint nounwind uwtable
define internal ptr @pmix_list_get_end(ptr noundef %0) #3 {
  %2 = alloca ptr, align 8
  store ptr %0, ptr %2, align 8, !tbaa !3
  %3 = load ptr, ptr %2, align 8, !tbaa !3
  %4 = getelementptr inbounds nuw %struct.pmix_list_t, ptr %3, i32 0, i32 1
  ret ptr %4
}

; Function Attrs: nounwind uwtable
define ptr @prte_fetch_attribute(ptr noundef %0, ptr noundef %1, i16 noundef zeroext %2) #0 {
  %4 = alloca ptr, align 8
  %5 = alloca ptr, align 8
  %6 = alloca ptr, align 8
  %7 = alloca i16, align 2
  %8 = alloca ptr, align 8
  %9 = alloca ptr, align 8
  %10 = alloca ptr, align 8
  %11 = alloca i32, align 4
  store ptr %0, ptr %5, align 8, !tbaa !3
  store ptr %1, ptr %6, align 8, !tbaa !10
  store i16 %2, ptr %7, align 2, !tbaa !8
  call void @llvm.lifetime.start.p0(i64 8, ptr %8) #11
  call void @llvm.lifetime.start.p0(i64 8, ptr %9) #11
  call void @llvm.lifetime.start.p0(i64 8, ptr %10) #11
  %12 = load ptr, ptr %6, align 8, !tbaa !10
  %13 = icmp eq ptr null, %12
  br i1 %13, label %14, label %40

14:                                               ; preds = %3
  %15 = load ptr, ptr %5, align 8, !tbaa !3
  %16 = getelementptr inbounds nuw %struct.pmix_list_t, ptr %15, i32 0, i32 1
  %17 = getelementptr inbounds nuw %struct.pmix_list_item_t, ptr %16, i32 0, i32 1
  %18 = load ptr, ptr %17, align 8, !tbaa !11
  store ptr %18, ptr %8, align 8, !tbaa !10
  br label %19

19:                                               ; preds = %35, %14
  %20 = load ptr, ptr %8, align 8, !tbaa !10
  %21 = load ptr, ptr %5, align 8, !tbaa !3
  %22 = getelementptr inbounds nuw %struct.pmix_list_t, ptr %21, i32 0, i32 1
  %23 = icmp ne ptr %20, %22
  br i1 %23, label %24, label %39

24:                                               ; preds = %19
  %25 = load i16, ptr %7, align 2, !tbaa !8
  %26 = zext i16 %25 to i32
  %27 = load ptr, ptr %8, align 8, !tbaa !10
  %28 = getelementptr inbounds nuw %struct.prte_attribute_t, ptr %27, i32 0, i32 1
  %29 = load i16, ptr %28, align 8, !tbaa !20
  %30 = zext i16 %29 to i32
  %31 = icmp eq i32 %26, %30
  br i1 %31, label %32, label %34

32:                                               ; preds = %24
  %33 = load ptr, ptr %8, align 8, !tbaa !10
  store ptr %33, ptr %4, align 8
  store i32 1, ptr %11, align 4
  br label %112

34:                                               ; preds = %24
  br label %35

35:                                               ; preds = %34
  %36 = load ptr, ptr %8, align 8, !tbaa !10
  %37 = getelementptr inbounds nuw %struct.pmix_list_item_t, ptr %36, i32 0, i32 1
  %38 = load ptr, ptr %37, align 8, !tbaa !26
  store ptr %38, ptr %8, align 8, !tbaa !10
  br label %19, !llvm.loop !82

39:                                               ; preds = %19
  store ptr null, ptr %4, align 8
  store i32 1, ptr %11, align 4
  br label %112

40:                                               ; preds = %3
  %41 = load ptr, ptr %5, align 8, !tbaa !3
  %42 = call ptr @pmix_list_get_end(ptr noundef %41)
  store ptr %42, ptr %9, align 8, !tbaa !10
  %43 = load ptr, ptr %6, align 8, !tbaa !10
  %44 = load ptr, ptr %9, align 8, !tbaa !10
  %45 = icmp eq ptr %43, %44
  br i1 %45, label %73, label %46

46:                                               ; preds = %40
  %47 = load ptr, ptr %9, align 8, !tbaa !10
  %48 = load ptr, ptr %6, align 8, !tbaa !10
  %49 = getelementptr inbounds nuw %struct.prte_attribute_t, ptr %48, i32 0, i32 0
  %50 = icmp ne ptr %49, null
  br i1 %50, label %51, label %56

51:                                               ; preds = %46
  %52 = load ptr, ptr %6, align 8, !tbaa !10
  %53 = getelementptr inbounds nuw %struct.prte_attribute_t, ptr %52, i32 0, i32 0
  %54 = getelementptr inbounds nuw %struct.pmix_list_item_t, ptr %53, i32 0, i32 1
  %55 = load ptr, ptr %54, align 8, !tbaa !26
  br label %57

56:                                               ; preds = %46
  br label %57

57:                                               ; preds = %56, %51
  %58 = phi ptr [ %55, %51 ], [ null, %56 ]
  %59 = icmp eq ptr %47, %58
  br i1 %59, label %73, label %60

60:                                               ; preds = %57
  %61 = load ptr, ptr %6, align 8, !tbaa !10
  %62 = getelementptr inbounds nuw %struct.prte_attribute_t, ptr %61, i32 0, i32 0
  %63 = icmp ne ptr %62, null
  br i1 %63, label %64, label %69

64:                                               ; preds = %60
  %65 = load ptr, ptr %6, align 8, !tbaa !10
  %66 = getelementptr inbounds nuw %struct.prte_attribute_t, ptr %65, i32 0, i32 0
  %67 = getelementptr inbounds nuw %struct.pmix_list_item_t, ptr %66, i32 0, i32 1
  %68 = load ptr, ptr %67, align 8, !tbaa !26
  br label %70

69:                                               ; preds = %60
  br label %70

70:                                               ; preds = %69, %64
  %71 = phi ptr [ %68, %64 ], [ null, %69 ]
  %72 = icmp eq ptr null, %71
  br i1 %72, label %73, label %74

73:                                               ; preds = %70, %57, %40
  store ptr null, ptr %4, align 8
  store i32 1, ptr %11, align 4
  br label %112

74:                                               ; preds = %70
  %75 = load ptr, ptr %6, align 8, !tbaa !10
  %76 = getelementptr inbounds nuw %struct.prte_attribute_t, ptr %75, i32 0, i32 0
  %77 = icmp ne ptr %76, null
  br i1 %77, label %78, label %83

78:                                               ; preds = %74
  %79 = load ptr, ptr %6, align 8, !tbaa !10
  %80 = getelementptr inbounds nuw %struct.prte_attribute_t, ptr %79, i32 0, i32 0
  %81 = getelementptr inbounds nuw %struct.pmix_list_item_t, ptr %80, i32 0, i32 1
  %82 = load ptr, ptr %81, align 8, !tbaa !26
  br label %84

83:                                               ; preds = %74
  br label %84

84:                                               ; preds = %83, %78
  %85 = phi ptr [ %82, %78 ], [ null, %83 ]
  store ptr %85, ptr %10, align 8, !tbaa !10
  br label %86

86:                                               ; preds = %109, %84
  %87 = load ptr, ptr %10, align 8, !tbaa !10
  %88 = icmp ne ptr null, %87
  br i1 %88, label %89, label %111

89:                                               ; preds = %86
  %90 = load ptr, ptr %10, align 8, !tbaa !10
  %91 = getelementptr inbounds nuw %struct.prte_attribute_t, ptr %90, i32 0, i32 1
  %92 = load i16, ptr %91, align 8, !tbaa !20
  %93 = zext i16 %92 to i32
  %94 = load i16, ptr %7, align 2, !tbaa !8
  %95 = zext i16 %94 to i32
  %96 = icmp eq i32 %93, %95
  br i1 %96, label %97, label %99

97:                                               ; preds = %89
  %98 = load ptr, ptr %10, align 8, !tbaa !10
  store ptr %98, ptr %4, align 8
  store i32 1, ptr %11, align 4
  br label %112

99:                                               ; preds = %89
  %100 = load ptr, ptr %10, align 8, !tbaa !10
  %101 = getelementptr inbounds nuw %struct.prte_attribute_t, ptr %100, i32 0, i32 0
  %102 = icmp ne ptr %101, null
  br i1 %102, label %103, label %108

103:                                              ; preds = %99
  %104 = load ptr, ptr %10, align 8, !tbaa !10
  %105 = getelementptr inbounds nuw %struct.prte_attribute_t, ptr %104, i32 0, i32 0
  %106 = getelementptr inbounds nuw %struct.pmix_list_item_t, ptr %105, i32 0, i32 1
  %107 = load ptr, ptr %106, align 8, !tbaa !26
  br label %109

108:                                              ; preds = %99
  br label %109

109:                                              ; preds = %108, %103
  %110 = phi ptr [ %107, %103 ], [ null, %108 ]
  store ptr %110, ptr %10, align 8, !tbaa !10
  br label %86, !llvm.loop !83

111:                                              ; preds = %86
  store ptr null, ptr %4, align 8
  store i32 1, ptr %11, align 4
  br label %112

112:                                              ; preds = %111, %97, %73, %39, %32
  call void @llvm.lifetime.end.p0(i64 8, ptr %10) #11
  call void @llvm.lifetime.end.p0(i64 8, ptr %9) #11
  call void @llvm.lifetime.end.p0(i64 8, ptr %8) #11
  %113 = load ptr, ptr %4, align 8
  ret ptr %113
}