; Function Attrs: nofree norecurse nosync nounwind memory(read, inaccessiblemem: none) uwtable
define ptr @prte_fetch_attribute(ptr noundef readonly captures(address) %0, ptr noundef readonly captures(address) %1, i16 noundef zeroext %2) local_unnamed_addr #4 {
  %4 = icmp eq ptr %1, null
  %5 = getelementptr inbounds nuw i8, ptr %0, i64 120
  br i1 %4, label %6, label %13

6:                                                ; preds = %3
  %7 = getelementptr inbounds nuw i8, ptr %0, i64 240
  %.02531 = load ptr, ptr %7, align 8, !tbaa !3
  %.not2832 = icmp eq ptr %.02531, %5
  br i1 %.not2832, label %.loopexit, label %.lr.ph

.lr.ph:                                           ; preds = %6, %11
  %.02533 = phi ptr [ %.025, %11 ], [ %.02531, %6 ]
  %8 = getelementptr inbounds nuw i8, ptr %.02533, i64 144
  %9 = load i16, ptr %8, align 8, !tbaa !13
  %10 = icmp eq i16 %2, %9
  br i1 %10, label %.loopexit, label %11

11:                                               ; preds = %.lr.ph
  %12 = getelementptr inbounds nuw i8, ptr %.02533, i64 120
  %.025 = load ptr, ptr %12, align 8, !tbaa !3
  %.not28 = icmp eq ptr %.025, %5
  br i1 %.not28, label %.loopexit, label %.lr.ph, !llvm.loop !61

13:                                               ; preds = %3
  %14 = icmp eq ptr %1, %5
  br i1 %14, label %.loopexit, label %15

15:                                               ; preds = %13
  %16 = getelementptr inbounds nuw i8, ptr %1, i64 120
  %17 = load ptr, ptr %16, align 8, !tbaa !3
  %18 = icmp eq ptr %5, %17
  %19 = icmp eq ptr %17, null
  %or.cond = or i1 %18, %19
  br i1 %or.cond, label %.loopexit, label %.preheader

.preheader:                                       ; preds = %15, %20
  %.pn = phi ptr [ %.0, %20 ], [ %1, %15 ]
  %.0.in = getelementptr inbounds nuw i8, ptr %.pn, i64 120
  %.0 = load ptr, ptr %.0.in, align 8, !tbaa !3
  %.not = icmp eq ptr %.0, null
  br i1 %.not, label %.loopexit, label %20

20:                                               ; preds = %.preheader
  %21 = getelementptr inbounds nuw i8, ptr %.0, i64 144
  %22 = load i16, ptr %21, align 8, !tbaa !13
  %23 = icmp eq i16 %22, %2
  br i1 %23, label %.loopexit, label %.preheader, !llvm.loop !62

.loopexit:                                        ; preds = %.preheader, %20, %.lr.ph, %11, %6, %13, %15
  %.024 = phi ptr [ null, %15 ], [ null, %13 ], [ null, %6 ], [ %.02533, %.lr.ph ], [ null, %11 ], [ null, %.preheader ], [ %.0, %20 ]
  ret ptr %.024
}